target datalayout = "e-m:e-p270:32:32-p271:32:32-p272:64:64-i64:64-i128:128-f80:128-n8:16:32:64-S128"
target triple = "x86_64-pc-linux-gnu"

%struct.slurm_conf_t = type { i64, ptr, i16, ptr, ptr, ptr, ptr, ptr, i16, ptr, ptr, ptr, ptr, ptr, ptr, ptr, i16, ptr, ptr, ptr, ptr, i16, ptr, ptr, ptr, i64, ptr, ptr, ptr, ptr, i16, ptr, ptr, i16, i32, ptr, i32, ptr, i32, i32, ptr, ptr, i64, i64, ptr, i16, i16, ptr, i32, i32, ptr, i32, ptr, i32, i16, i16, i16, ptr, i16, i16, ptr, ptr, i32, i16, i16, ptr, i32, i16, ptr, ptr, ptr, ptr, i16, ptr, ptr, ptr, ptr, i32, ptr, ptr, ptr, ptr, i16, i16, ptr, i32, i32, i32, i16, i16, ptr, ptr, i16, ptr, ptr, i32, i32, i32, i32, i32, i64, i32, i32, i16, ptr, ptr, i32, ptr, ptr, ptr, i16, i32, ptr, ptr, i16, ptr, ptr, i32, i16, ptr, ptr, ptr, ptr, i32, i32, i16, i16, i32, ptr, i16, ptr, i32, i32, i32, i32, i32, i32, ptr, i16, ptr, ptr, i32, i16, ptr, i32, i16, i16, ptr, ptr, ptr, i16, ptr, ptr, ptr, ptr, i16, i16, ptr, i16, ptr, i16, ptr, i16, ptr, i16, ptr, ptr, ptr, ptr, i16, ptr, ptr, ptr, i32, ptr, i32, ptr, ptr, i16, ptr, ptr, i32, i16, ptr, ptr, i16, i16, ptr, i16, ptr, ptr, ptr, i32, ptr, i16, i16, ptr, ptr, ptr, ptr, ptr, ptr, ptr, ptr, i16, i32, i16, ptr, ptr, ptr, ptr, i32, ptr, ptr, ptr, i16, ptr, ptr, ptr, i16, ptr, i16, ptr, i16, i16, ptr }
%struct._foreach_modes_t = type { ptr, ptr }

@plugin_type = dso_local constant [22 x i8] c"node_features/helpers\00", align 16
@helper_features = internal global ptr null, align 8
@slurm_conf = external global %struct.slurm_conf_t, align 8
@.str.5 = private unnamed_addr constant [53 x i8] c"%s: %s: NODE_FEATURES: original: avail=%s current=%s\00", align 1
@__func__.node_features_p_node_state = private unnamed_addr constant [27 x i8] c"node_features_p_node_state\00", align 1
@.str.6 = private unnamed_addr constant [48 x i8] c"%s: %s: NODE_FEATURES: new: avail=%s current=%s\00", align 1

; Function Attrs: nounwind uwtable
define dso_local void @node_features_p_node_state(ptr noundef %0, ptr noundef %1) #0 {
  %3 = alloca ptr, align 8
  %4 = alloca ptr, align 8
  %5 = alloca ptr, align 8
  %6 = alloca ptr, align 8
  %7 = alloca %struct._foreach_modes_t, align 8
  %8 = alloca i32, align 4
  store ptr %0, ptr %3, align 8
  store ptr %1, ptr %4, align 8
  call void @llvm.lifetime.start.p0(i64 8, ptr %5) #8
  store ptr null, ptr %5, align 8
  call void @llvm.lifetime.start.p0(i64 8, ptr %6) #8
  store ptr null, ptr %6, align 8
  call void @llvm.lifetime.start.p0(i64 16, ptr %7) #8
  %9 = load ptr, ptr %3, align 8
  %10 = icmp ne ptr %9, null
  br i1 %10, label %11, label %14

11:                                               ; preds = %2
  %12 = load ptr, ptr %4, align 8
  %13 = icmp ne ptr %12, null
  br i1 %13, label %15, label %14

14:                                               ; preds = %11, %2
  store i32 1, ptr %8, align 4
  br label %84

15:                                               ; preds = %11
  br label %16

16:                                               ; preds = %15
  %17 = load i64, ptr getelementptr inbounds nuw (%struct.slurm_conf_t, ptr @slurm_conf, i32 0, i32 42), align 8
  %18 = and i64 %17, 140737488355328
  %19 = icmp ne i64 %18, 0
  br i1 %19, label %20, label %32

20:                                               ; preds = %16
  br label %21

21:                                               ; preds = %20
  %22 = call i32 @get_log_level()
  %23 = icmp sge i32 %22, 4
  br i1 %23, label %24, label %29

24:                                               ; preds = %21
  %25 = load ptr, ptr %3, align 8
  %26 = load ptr, ptr %25, align 8
  %27 = load ptr, ptr %4, align 8
  %28 = load ptr, ptr %27, align 8
  call void (i32, ptr, ...) @log_var(i32 noundef 4, ptr noundef @.str.5, ptr noundef @plugin_type, ptr noundef @__func__.node_features_p_node_state, ptr noundef %26, ptr noundef %28)
  br label %29

29:                                               ; preds = %24, %21
  br label %30

30:                                               ; preds = %29
  br label %31

31:                                               ; preds = %30
  br label %32

32:                                               ; preds = %31, %16
  br label %33

33:                                               ; preds = %32
  br label %34

34:                                               ; preds = %33
  %35 = call ptr @list_create(ptr noundef @xfree_ptr)
  store ptr %35, ptr %5, align 8
  %36 = load ptr, ptr %5, align 8
  %37 = getelementptr inbounds nuw %struct._foreach_modes_t, ptr %7, i32 0, i32 1
  store ptr %36, ptr %37, align 8
  %38 = load ptr, ptr %3, align 8
  %39 = getelementptr inbounds nuw %struct._foreach_modes_t, ptr %7, i32 0, i32 0
  store ptr %38, ptr %39, align 8
  %40 = load ptr, ptr @helper_features, align 8
  %41 = call i32 @list_for_each(ptr noundef %40, ptr noundef @_foreach_helper_get_modes, ptr noundef %7)
  %42 = call ptr @list_create(ptr noundef @xfree_ptr)
  store ptr %42, ptr %6, align 8
  %43 = load ptr, ptr %5, align 8
  %44 = load ptr, ptr %6, align 8
  %45 = call i32 @list_for_each(ptr noundef %43, ptr noundef @_foreach_filter_modes, ptr noundef %44)
  %46 = load ptr, ptr %6, align 8
  %47 = load ptr, ptr %4, align 8
  %48 = call i32 @list_for_each(ptr noundef %46, ptr noundef @_list_make_str, ptr noundef %47)
  br label %49

49:                                               ; preds = %34
  %50 = load ptr, ptr %5, align 8
  %51 = icmp ne ptr %50, null
  br i1 %51, label %52, label %54

52:                                               ; preds = %49
  %53 = load ptr, ptr %5, align 8
  call void @list_destroy(ptr noundef %53)
  br label %54

54:                                               ; preds = %52, %49
  store ptr null, ptr %5, align 8
  br label %55

55:                                               ; preds = %54
  br label %56

56:                                               ; preds = %55
  br label %57

57:                                               ; preds = %56
  %58 = load ptr, ptr %6, align 8
  %59 = icmp ne ptr %58, null
  br i1 %59, label %60, label %62

60:                                               ; preds = %57
  %61 = load ptr, ptr %6, align 8
  call void @list_destroy(ptr noundef %61)
  br label %62

62:                                               ; preds = %60, %57
  store ptr null, ptr %6, align 8
  br label %63

63:                                               ; preds = %62
  br label %64

64:                                               ; preds = %63
  br label %65

65:                                               ; preds = %64
  %66 = load i64, ptr getelementptr inbounds nuw (%struct.slurm_conf_t, ptr @slurm_conf, i32 0, i32 42), align 8
  %67 = and i64 %66, 140737488355328
  %68 = icmp ne i64 %67, 0
  br i1 %68, label %69, label %81

69:                                               ; preds = %65
  br label %70

70:                                               ; preds = %69
  %71 = call i32 @get_log_level()
  %72 = icmp sge i32 %71, 4
  br i1 %72, label %73, label %78

73:                                               ; preds = %70
  %74 = load ptr, ptr %3, align 8
  %75 = load ptr, ptr %74, align 8
  %76 = load ptr, ptr %4, align 8
  %77 = load ptr, ptr %76, align 8
  call void (i32, ptr, ...) @log_var(i32 noundef 4, ptr noundef @.str.6, ptr noundef @plugin_type, ptr noundef @__func__.node_features_p_node_state, ptr noundef %75, ptr noundef %77)
  br label %78

78:                                               ; preds = %73, %70
  br label %79

79:                                               ; preds = %78
  br label %80

80:                                               ; preds = %79
  br label %81

81:                                               ; preds = %80, %65
  br label %82

82:                                               ; preds = %81
  br label %83

83:                                               ; preds = %82
  store i32 0, ptr %8, align 4
  br label %84

84:                                               ; preds = %83, %14
  call void @llvm.lifetime.end.p0(i64 16, ptr %7) #8
  call void @llvm.lifetime.end.p0(i64 8, ptr %6) #8
  call void @llvm.lifetime.end.p0(i64 8, ptr %5) #8
  %85 = load i32, ptr %8, align 4
  switch i32 %85, label %87 [
    i32 0, label %86
    i32 1, label %86
  ]

86:                                               ; preds = %84, %84
  ret void

87:                                               ; preds = %84
  unreachable
}