; Function Attrs: nounwind uwtable
define dso_local void @node_features_p_node_state(ptr noundef %0, ptr noundef %1) local_unnamed_addr #0 {
  %3 = alloca %struct._foreach_modes_t, align 8
  call void @llvm.lifetime.start.p0(i64 16, ptr nonnull %3) #10
  %4 = icmp ne ptr %0, null
  %5 = icmp ne ptr %1, null
  %or.cond = and i1 %4, %5
  br i1 %or.cond, label %6, label %35

6:                                                ; preds = %2
  %7 = load i64, ptr getelementptr inbounds nuw (i8, ptr @slurm_conf, i64 320), align 8
  %8 = and i64 %7, 140737488355328
  %.not = icmp eq i64 %8, 0
  br i1 %.not, label %15, label %9

9:                                                ; preds = %6
  %10 = tail call i32 @get_log_level() #10
  %11 = icmp sgt i32 %10, 3
  br i1 %11, label %12, label %15

12:                                               ; preds = %9
  %13 = load ptr, ptr %0, align 8
  %14 = load ptr, ptr %1, align 8
  tail call void (i32, ptr, ...) @log_var(i32 noundef 4, ptr noundef nonnull @.str.5, ptr noundef nonnull @plugin_type, ptr noundef nonnull @__func__.node_features_p_node_state, ptr noundef %13, ptr noundef %14) #10
  br label %15

15:                                               ; preds = %9, %12, %6
  %16 = tail call ptr @list_create(ptr noundef nonnull @xfree_ptr) #10
  %17 = getelementptr inbounds nuw i8, ptr %3, i64 8
  store ptr %16, ptr %17, align 8
  store ptr %0, ptr %3, align 8
  %18 = load ptr, ptr @helper_features, align 8
  %19 = call i32 @list_for_each(ptr noundef %18, ptr noundef nonnull @_foreach_helper_get_modes, ptr noundef nonnull %3) #10
  %20 = call ptr @list_create(ptr noundef nonnull @xfree_ptr) #10
  %21 = call i32 @list_for_each(ptr noundef %16, ptr noundef nonnull @_foreach_filter_modes, ptr noundef %20) #10
  %22 = call i32 @list_for_each(ptr noundef %20, ptr noundef nonnull @_list_make_str, ptr noundef nonnull %1) #10
  %.not20 = icmp eq ptr %16, null
  br i1 %.not20, label %24, label %23

23:                                               ; preds = %15
  call void @list_destroy(ptr noundef nonnull %16) #10
  br label %24

24:                                               ; preds = %23, %15
  %.not21 = icmp eq ptr %20, null
  br i1 %.not21, label %26, label %25

25:                                               ; preds = %24
  call void @list_destroy(ptr noundef nonnull %20) #10
  br label %26

26:                                               ; preds = %25, %24
  %27 = load i64, ptr getelementptr inbounds nuw (i8, ptr @slurm_conf, i64 320), align 8
  %28 = and i64 %27, 140737488355328
  %.not22 = icmp eq i64 %28, 0
  br i1 %.not22, label %35, label %29

29:                                               ; preds = %26
  %30 = call i32 @get_log_level() #10
  %31 = icmp sgt i32 %30, 3
  br i1 %31, label %32, label %35

32:                                               ; preds = %29
  %33 = load ptr, ptr %0, align 8
  %34 = load ptr, ptr %1, align 8
  call void (i32, ptr, ...) @log_var(i32 noundef 4, ptr noundef nonnull @.str.6, ptr noundef nonnull @plugin_type, ptr noundef nonnull @__func__.node_features_p_node_state, ptr noundef %33, ptr noundef %34) #10
  br label %35

35:                                               ; preds = %26, %32, %29, %2
  call void @llvm.lifetime.end.p0(i64 16, ptr nonnull %3) #10
  ret void
}